; Function Attrs: inlinehint nofree norecurse nosync nounwind memory(argmem: readwrite) uwtable
define internal void @put_no_rnd_pixels8_xy2_8_c(ptr noundef writeonly captures(none) %0, ptr noundef readonly captures(none) %1, i64 noundef %2, i32 noundef %3) #2 {
  %5 = icmp sgt i32 %3, 0
  %6 = add nsw i32 %3, 1
  %7 = sext i32 %6 to i64
  %8 = mul nsw i64 %2, %7
  %9 = sub nsw i64 4, %8
  %10 = sext i32 %3 to i64
  %11 = mul nsw i64 %2, %10
  %12 = sub nsw i64 4, %11
  br i1 %5, label %.lr.ph.us, label %.split68.us

.lr.ph.us:                                        ; preds = %4, %._crit_edge.us
  %.066.us = phi ptr [ %63, %._crit_edge.us ], [ %0, %4 ]
  %.04865.us = phi ptr [ %62, %._crit_edge.us ], [ %1, %4 ]
  %13 = phi i1 [ false, %._crit_edge.us ], [ true, %4 ]
  %14 = load i32, ptr %.04865.us, align 1, !tbaa !8
  %15 = getelementptr inbounds nuw i8, ptr %.04865.us, i64 1
  %16 = load i32, ptr %15, align 1, !tbaa !8
  %17 = and i32 %14, 50529027
  %18 = and i32 %16, 50529027
  %19 = add nuw nsw i32 %17, 16843009
  %20 = add nuw nsw i32 %19, %18
  %21 = lshr i32 %14, 2
  %22 = and i32 %21, 1061109567
  %23 = lshr i32 %16, 2
  %24 = and i32 %23, 1061109567
  %narrow.us = add nuw nsw i32 %24, %22
  %.14957.us = getelementptr inbounds i8, ptr %.04865.us, i64 %2
  br label %25

25:                                               ; preds = %.lr.ph.us, %25
  %.14962.us = phi ptr [ %.14957.us, %.lr.ph.us ], [ %.149.us, %25 ]
  %.161.us = phi ptr [ %.066.us, %.lr.ph.us ], [ %59, %25 ]
  %.05160.us = phi i32 [ 0, %.lr.ph.us ], [ %60, %25 ]
  %.05259.us = phi i32 [ %narrow.us, %.lr.ph.us ], [ %narrow56.us, %25 ]
  %.05358.us = phi i32 [ %20, %.lr.ph.us ], [ %49, %25 ]
  %26 = load i32, ptr %.14962.us, align 1, !tbaa !8
  %27 = getelementptr inbounds nuw i8, ptr %.14962.us, i64 1
  %28 = load i32, ptr %27, align 1, !tbaa !8
  %29 = and i32 %26, 50529027
  %30 = and i32 %28, 50529027
  %31 = add nuw nsw i32 %30, %29
  %32 = lshr i32 %26, 2
  %33 = and i32 %32, 1061109567
  %34 = lshr i32 %28, 2
  %35 = and i32 %34, 1061109567
  %narrow55.us = add nuw nsw i32 %35, %33
  %36 = add nuw i32 %narrow55.us, %.05259.us
  %37 = add nuw nsw i32 %31, %.05358.us
  %38 = lshr i32 %37, 2
  %39 = and i32 %38, 252645135
  %40 = add i32 %36, %39
  store i32 %40, ptr %.161.us, align 4, !tbaa !9
  %41 = getelementptr inbounds i8, ptr %.14962.us, i64 %2
  %42 = getelementptr inbounds i8, ptr %.161.us, i64 %2
  %43 = load i32, ptr %41, align 1, !tbaa !8
  %44 = getelementptr inbounds nuw i8, ptr %41, i64 1
  %45 = load i32, ptr %44, align 1, !tbaa !8
  %46 = and i32 %43, 50529027
  %47 = and i32 %45, 50529027
  %48 = add nuw nsw i32 %46, 16843009
  %49 = add nuw nsw i32 %48, %47
  %50 = lshr i32 %43, 2
  %51 = and i32 %50, 1061109567
  %52 = lshr i32 %45, 2
  %53 = and i32 %52, 1061109567
  %narrow56.us = add nuw nsw i32 %53, %51
  %54 = add nuw i32 %narrow56.us, %narrow55.us
  %55 = add nuw nsw i32 %49, %31
  %56 = lshr i32 %55, 2
  %57 = and i32 %56, 117901063
  %58 = add i32 %54, %57
  store i32 %58, ptr %42, align 4, !tbaa !9
  %59 = getelementptr inbounds i8, ptr %42, i64 %2
  %60 = add nuw nsw i32 %.05160.us, 2
  %.149.us = getelementptr inbounds i8, ptr %41, i64 %2
  %61 = icmp slt i32 %60, %3
  br i1 %61, label %25, label %._crit_edge.us, !llvm.loop !25

._crit_edge.us:                                   ; preds = %25
  %62 = getelementptr inbounds i8, ptr %.149.us, i64 %9
  %63 = getelementptr inbounds i8, ptr %59, i64 %12
  br i1 %13, label %.lr.ph.us, label %.split68.us, !llvm.loop !26

.split68.us:                                      ; preds = %._crit_edge.us, %4
  ret void
}